; Function Attrs: mustprogress uwtable
define dso_local void @_ZN7cmState18SetCacheEntryValueERKNSt7__cxx1112basic_stringIcSt11char_traitsIcESaIcEEES7_(ptr noundef nonnull readonly align 8 captures(none) dereferenceable(705) %0, ptr noundef nonnull align 8 dereferenceable(32) %1, ptr noundef nonnull align 8 dereferenceable(32) %2) local_unnamed_addr #5 align 2 {
  %4 = getelementptr inbounds nuw i8, ptr %0, i64 296
  %5 = load ptr, ptr %4, align 8, !tbaa !120
  %6 = tail call noundef ptr @_ZN14cmCacheManager13GetCacheEntryERKNSt7__cxx1112basic_stringIcSt11char_traitsIcESaIcEEE(ptr noundef nonnull align 8 dereferenceable(60) %5, ptr noundef nonnull align 8 dereferenceable(32) %1)
  %.not.i = icmp eq ptr %6, null
  br i1 %.not.i, label %_ZN14cmCacheManager18SetCacheEntryValueERKNSt7__cxx1112basic_stringIcSt11char_traitsIcESaIcEEES7_.exit, label %7

7:                                                ; preds = %3
  tail call void @_ZN14cmCacheManager10CacheEntry8SetValueE7cmValue(ptr noundef nonnull align 8 dereferenceable(97) %6, ptr nonnull align 8 dereferenceable(32) %2)
  br label %_ZN14cmCacheManager18SetCacheEntryValueERKNSt7__cxx1112basic_stringIcSt11char_traitsIcESaIcEEES7_.exit

_ZN14cmCacheManager18SetCacheEntryValueERKNSt7__cxx1112basic_stringIcSt11char_traitsIcESaIcEEES7_.exit: ; preds = %3, %7
  ret void
}